; ModuleID = '55/145.c'
source_filename = "55/145.c"
target datalayout = "e-m:e-p270:32:32-p271:32:32-p272:64:64-i64:64-f80:128-n8:16:32:64-S128"
target triple = "x86_64-pc-linux-gnu"

@.str = private unnamed_addr constant [3 x i8] c"%d\00", align 1
@.str.1 = private unnamed_addr constant [3 x i8] c"%s\00", align 1
@.str.2 = private unnamed_addr constant [3 x i8] c"%c\00", align 1
@.str.3 = private unnamed_addr constant [2 x i8] c"\0A\00", align 1

; Function Attrs: noinline nounwind uwtable
define dso_local i32 @main() #0 {
  %1 = alloca i32, align 4
  %2 = alloca i32, align 4
  %3 = alloca i32, align 4
  %4 = alloca i32, align 4
  %5 = alloca i32, align 4
  %6 = alloca i32, align 4
  %7 = alloca i32, align 4
  %8 = alloca i32, align 4
  %9 = alloca [20 x i8], align 16
  %10 = alloca [20 x i8], align 16
  %11 = alloca [20 x i8], align 16
  store i32 0, i32* %1, align 4
  store i32 0, i32* %6, align 4
  store i32 1, i32* %7, align 4
  %12 = call i32 (i8*, ...) @__isoc99_scanf(i8* getelementptr inbounds ([3 x i8], [3 x i8]* @.str, i64 0, i64 0), i32* %2)
  %13 = getelementptr inbounds [20 x i8], [20 x i8]* %9, i64 0, i64 0
  %14 = call i32 (i8*, ...) @__isoc99_scanf(i8* getelementptr inbounds ([3 x i8], [3 x i8]* @.str.1, i64 0, i64 0), i8* %13)
  %15 = call i32 (i8*, ...) @__isoc99_scanf(i8* getelementptr inbounds ([3 x i8], [3 x i8]* @.str, i64 0, i64 0), i32* %3)
  %16 = getelementptr inbounds [20 x i8], [20 x i8]* %9, i64 0, i64 0
  %17 = call i64 @strlen(i8* %16) #3
  %18 = trunc i64 %17 to i32
  store i32 %18, i32* %4, align 4
  %19 = load i32, i32* %4, align 4
  %20 = sub nsw i32 %19, 1
  store i32 %20, i32* %5, align 4
  br label %21

21:                                               ; preds = %105, %0
  %22 = load i32, i32* %5, align 4
  %23 = icmp sge i32 %22, 0
  br i1 %23, label %24, label %108

24:                                               ; preds = %21
  %25 = load i32, i32* %5, align 4
  %26 = sext i32 %25 to i64
  %27 = getelementptr inbounds [20 x i8], [20 x i8]* %9, i64 0, i64 %26
  %28 = load i8, i8* %27, align 1
  %29 = sext i8 %28 to i32
  %30 = icmp sge i32 %29, 48
  br i1 %30, label %31, label %49

31:                                               ; preds = %24
  %32 = load i32, i32* %5, align 4
  %33 = sext i32 %32 to i64
  %34 = getelementptr inbounds [20 x i8], [20 x i8]* %9, i64 0, i64 %33
  %35 = load i8, i8* %34, align 1
  %36 = sext i8 %35 to i32
  %37 = icmp sle i32 %36, 57
  br i1 %37, label %38, label %49

38:                                               ; preds = %31
  %39 = load i32, i32* %6, align 4
  %40 = load i32, i32* %5, align 4
  %41 = sext i32 %40 to i64
  %42 = getelementptr inbounds [20 x i8], [20 x i8]* %9, i64 0, i64 %41
  %43 = load i8, i8* %42, align 1
  %44 = sext i8 %43 to i32
  %45 = sub nsw i32 %44, 48
  %46 = load i32, i32* %7, align 4
  %47 = mul nsw i32 %45, %46
  %48 = add nsw i32 %39, %47
  store i32 %48, i32* %6, align 4
  br label %101

49:                                               ; preds = %31, %24
  %50 = load i32, i32* %5, align 4
  %51 = sext i32 %50 to i64
  %52 = getelementptr inbounds [20 x i8], [20 x i8]* %9, i64 0, i64 %51
  %53 = load i8, i8* %52, align 1
  %54 = sext i8 %53 to i32
  %55 = icmp sge i32 %54, 65
  br i1 %55, label %56, label %74

56:                                               ; preds = %49
  %57 = load i32, i32* %5, align 4
  %58 = sext i32 %57 to i64
  %59 = getelementptr inbounds [20 x i8], [20 x i8]* %9, i64 0, i64 %58
  %60 = load i8, i8* %59, align 1
  %61 = sext i8 %60 to i32
  %62 = icmp sle i32 %61, 90
  br i1 %62, label %63, label %74

63:                                               ; preds = %56
  %64 = load i32, i32* %6, align 4
  %65 = load i32, i32* %5, align 4
  %66 = sext i32 %65 to i64
  %67 = getelementptr inbounds [20 x i8], [20 x i8]* %9, i64 0, i64 %66
  %68 = load i8, i8* %67, align 1
  %69 = sext i8 %68 to i32
  %70 = sub nsw i32 %69, 55
  %71 = load i32, i32* %7, align 4
  %72 = mul nsw i32 %70, %71
  %73 = add nsw i32 %64, %72
  store i32 %73, i32* %6, align 4
  br label %100

74:                                               ; preds = %56, %49
  %75 = load i32, i32* %5, align 4
  %76 = sext i32 %75 to i64
  %77 = getelementptr inbounds [20 x i8], [20 x i8]* %9, i64 0, i64 %76
  %78 = load i8, i8* %77, align 1
  %79 = sext i8 %78 to i32
  %80 = icmp sge i32 %79, 97
  br i1 %80, label %81, label %99

81:                                               ; preds = %74
  %82 = load i32, i32* %5, align 4
  %83 = sext i32 %82 to i64
  %84 = getelementptr inbounds [20 x i8], [20 x i8]* %9, i64 0, i64 %83
  %85 = load i8, i8* %84, align 1
  %86 = sext i8 %85 to i32
  %87 = icmp sle i32 %86, 122
  br i1 %87, label %88, label %99

88:                                               ; preds = %81
  %89 = load i32, i32* %6, align 4
  %90 = load i32, i32* %5, align 4
  %91 = sext i32 %90 to i64
  %92 = getelementptr inbounds [20 x i8], [20 x i8]* %9, i64 0, i64 %91
  %93 = load i8, i8* %92, align 1
  %94 = sext i8 %93 to i32
  %95 = sub nsw i32 %94, 87
  %96 = load i32, i32* %7, align 4
  %97 = mul nsw i32 %95, %96
  %98 = add nsw i32 %89, %97
  store i32 %98, i32* %6, align 4
  br label %99

99:                                               ; preds = %88, %81, %74
  br label %100

100:                                              ; preds = %99, %63
  br label %101

101:                                              ; preds = %100, %38
  %102 = load i32, i32* %7, align 4
  %103 = load i32, i32* %2, align 4
  %104 = mul nsw i32 %102, %103
  store i32 %104, i32* %7, align 4
  br label %105

105:                                              ; preds = %101
  %106 = load i32, i32* %5, align 4
  %107 = add nsw i32 %106, -1
  store i32 %107, i32* %5, align 4
  br label %21

108:                                              ; preds = %21
  %109 = load i32, i32* %6, align 4
  %110 = icmp eq i32 %109, 0
  br i1 %110, label %111, label %114

111:                                              ; preds = %108
  %112 = load i32, i32* %6, align 4
  %113 = call i32 (i8*, ...) @printf(i8* getelementptr inbounds ([3 x i8], [3 x i8]* @.str, i64 0, i64 0), i32 %112)
  br label %170

114:                                              ; preds = %108
  store i32 0, i32* %5, align 4
  br label %115

115:                                              ; preds = %141, %114
  %116 = load i32, i32* %6, align 4
  %117 = icmp sgt i32 %116, 0
  br i1 %117, label %118, label %144

118:                                              ; preds = %115
  %119 = load i32, i32* %6, align 4
  %120 = load i32, i32* %3, align 4
  %121 = srem i32 %119, %120
  store i32 %121, i32* %8, align 4
  %122 = load i32, i32* %6, align 4
  %123 = load i32, i32* %3, align 4
  %124 = sdiv i32 %122, %123
  store i32 %124, i32* %6, align 4
  %125 = load i32, i32* %8, align 4
  %126 = icmp sle i32 %125, 9
  br i1 %126, label %127, label %134

127:                                              ; preds = %118
  %128 = load i32, i32* %8, align 4
  %129 = add nsw i32 %128, 48
  %130 = trunc i32 %129 to i8
  %131 = load i32, i32* %5, align 4
  %132 = sext i32 %131 to i64
  %133 = getelementptr inbounds [20 x i8], [20 x i8]* %10, i64 0, i64 %132
  store i8 %130, i8* %133, align 1
  br label %141

134:                                              ; preds = %118
  %135 = load i32, i32* %8, align 4
  %136 = add nsw i32 %135, 55
  %137 = trunc i32 %136 to i8
  %138 = load i32, i32* %5, align 4
  %139 = sext i32 %138 to i64
  %140 = getelementptr inbounds [20 x i8], [20 x i8]* %10, i64 0, i64 %139
  store i8 %137, i8* %140, align 1
  br label %141

141:                                              ; preds = %134, %127
  %142 = load i32, i32* %5, align 4
  %143 = add nsw i32 %142, 1
  store i32 %143, i32* %5, align 4
  br label %115

144:                                              ; preds = %115
  store i32 0, i32* %7, align 4
  br label %145

145:                                              ; preds = %166, %144
  %146 = load i32, i32* %7, align 4
  %147 = load i32, i32* %5, align 4
  %148 = icmp slt i32 %146, %147
  br i1 %148, label %149, label %169

149:                                              ; preds = %145
  %150 = load i32, i32* %5, align 4
  %151 = sub nsw i32 %150, 1
  %152 = load i32, i32* %7, align 4
  %153 = sub nsw i32 %151, %152
  %154 = sext i32 %153 to i64
  %155 = getelementptr inbounds [20 x i8], [20 x i8]* %10, i64 0, i64 %154
  %156 = load i8, i8* %155, align 1
  %157 = load i32, i32* %7, align 4
  %158 = sext i32 %157 to i64
  %159 = getelementptr inbounds [20 x i8], [20 x i8]* %11, i64 0, i64 %158
  store i8 %156, i8* %159, align 1
  %160 = load i32, i32* %7, align 4
  %161 = sext i32 %160 to i64
  %162 = getelementptr inbounds [20 x i8], [20 x i8]* %11, i64 0, i64 %161
  %163 = load i8, i8* %162, align 1
  %164 = sext i8 %163 to i32
  %165 = call i32 (i8*, ...) @printf(i8* getelementptr inbounds ([3 x i8], [3 x i8]* @.str.2, i64 0, i64 0), i32 %164)
  br label %166

166:                                              ; preds = %149
  %167 = load i32, i32* %7, align 4
  %168 = add nsw i32 %167, 1
  store i32 %168, i32* %7, align 4
  br label %145

169:                                              ; preds = %145
  br label %170

170:                                              ; preds = %169, %111
  %171 = call i32 (i8*, ...) @printf(i8* getelementptr inbounds ([2 x i8], [2 x i8]* @.str.3, i64 0, i64 0))
  %172 = call i32 (i8*, ...) @__isoc99_scanf(i8* getelementptr inbounds ([3 x i8], [3 x i8]* @.str, i64 0, i64 0), i32* %2)
  %173 = load i32, i32* %1, align 4
  ret i32 %173
}

declare dso_local i32 @__isoc99_scanf(i8*, ...) #1

; Function Attrs: nounwind readonly
declare dso_local i64 @strlen(i8*) #2

declare dso_local i32 @printf(i8*, ...) #1


!llvm.module.flags = !{!0}
!llvm.ident = !{!1}

!0 = !{i32 1, !"wchar_size", i32 4}
!1 = !{!"clang version 10.0.0-4ubuntu1 "}
